; Function Attrs: mustprogress nofree norecurse nosync nounwind willreturn memory(read, inaccessiblemem: none) uwtable
define internal range(i32 -1, 2) i32 @Super_WriteCompare(ptr noundef readonly captures(none) %0, ptr noundef readonly captures(none) %1) #14 {
  %3 = load ptr, ptr %0, align 8, !tbaa !42
  %4 = getelementptr inbounds nuw i8, ptr %3, i64 12
  %5 = load ptr, ptr %1, align 8, !tbaa !42
  %6 = getelementptr inbounds nuw i8, ptr %5, i64 12
  %7 = getelementptr inbounds nuw i8, ptr %3, i64 16
  %8 = load i32, ptr %7, align 4, !tbaa !33
  %9 = getelementptr inbounds nuw i8, ptr %5, i64 16
  %10 = load i32, ptr %9, align 4, !tbaa !33
  %11 = icmp ult i32 %8, %10
  br i1 %11, label %20, label %12

12:                                               ; preds = %2
  %13 = icmp ugt i32 %8, %10
  br i1 %13, label %20, label %14

14:                                               ; preds = %12
  %15 = load i32, ptr %4, align 4, !tbaa !33
  %16 = load i32, ptr %6, align 4, !tbaa !33
  %17 = icmp ult i32 %15, %16
  br i1 %17, label %20, label %18

18:                                               ; preds = %14
  %19 = icmp ugt i32 %15, %16
  %. = zext i1 %19 to i32
  br label %20

20:                                               ; preds = %18, %14, %12, %2
  %.0 = phi i32 [ -1, %2 ], [ 1, %12 ], [ -1, %14 ], [ %., %18 ]
  ret i32 %.0
}